target datalayout = "e-m:e-p270:32:32-p271:32:32-p272:64:64-i64:64-i128:128-f80:128-n8:16:32:64-S128"
target triple = "x86_64-pc-linux-gnu"

%struct.Hop_Obj_t_ = type { %union.anon, %union.anon.0, ptr, ptr, i32, i32 }
%union.anon = type { ptr }
%union.anon.0 = type { ptr }
%struct.Vec_Ptr_t_ = type { i32, i32, ptr }
%struct.Hop_Man_t_ = type { ptr, ptr, ptr, ptr, %struct.Hop_Obj_t_, [6 x i32], i32, i32, ptr, i32, ptr, i32, i32, i32, ptr, ptr, ptr, i64, i64 }

@.str.2 = private unnamed_addr constant [79 x i8] c"Hop_Remap(): The number of variables (%d) is more than the manager size (%d).\0A\00", align 1

; Function Attrs: inlinehint nounwind uwtable
define internal ptr @Hop_Not(ptr noundef %0) #1 {
  %2 = alloca ptr, align 8
  store ptr %0, ptr %2, align 8, !tbaa !3
  %3 = load ptr, ptr %2, align 8, !tbaa !3
  %4 = ptrtoint ptr %3 to i64
  %5 = xor i64 %4, 1
  %6 = inttoptr i64 %5 to ptr
  ret ptr %6
}

; Function Attrs: inlinehint nounwind uwtable
define internal i32 @Hop_IsComplement(ptr noundef %0) #1 {
  %2 = alloca ptr, align 8
  store ptr %0, ptr %2, align 8, !tbaa !3
  %3 = load ptr, ptr %2, align 8, !tbaa !3
  %4 = ptrtoint ptr %3 to i64
  %5 = and i64 %4, 1
  %6 = trunc i64 %5 to i32
  ret i32 %6
}

; Function Attrs: inlinehint nounwind uwtable
define internal ptr @Vec_PtrEntry(ptr noundef %0, i32 noundef %1) #1 {
  %3 = alloca ptr, align 8
  %4 = alloca i32, align 4
  store ptr %0, ptr %3, align 8, !tbaa !8
  store i32 %1, ptr %4, align 4, !tbaa !21
  %5 = load ptr, ptr %3, align 8, !tbaa !8
  %6 = getelementptr inbounds nuw %struct.Vec_Ptr_t_, ptr %5, i32 0, i32 2
  %7 = load ptr, ptr %6, align 8, !tbaa !18
  %8 = load i32, ptr %4, align 4, !tbaa !21
  %9 = sext i32 %8 to i64
  %10 = getelementptr inbounds ptr, ptr %7, i64 %9
  %11 = load ptr, ptr %10, align 8, !tbaa !14
  ret ptr %11
}

; Function Attrs: inlinehint nounwind uwtable
define internal i32 @Vec_PtrSize(ptr noundef %0) #1 {
  %2 = alloca ptr, align 8
  store ptr %0, ptr %2, align 8, !tbaa !8
  %3 = load ptr, ptr %2, align 8, !tbaa !8
  %4 = getelementptr inbounds nuw %struct.Vec_Ptr_t_, ptr %3, i32 0, i32 1
  %5 = load i32, ptr %4, align 4, !tbaa !15
  ret i32 %5
}

; Function Attrs: inlinehint nounwind uwtable
define internal ptr @Hop_NotCond(ptr noundef %0, i32 noundef %1) #1 {
  %3 = alloca ptr, align 8
  %4 = alloca i32, align 4
  store ptr %0, ptr %3, align 8, !tbaa !3
  store i32 %1, ptr %4, align 4, !tbaa !21
  %5 = load ptr, ptr %3, align 8, !tbaa !3
  %6 = ptrtoint ptr %5 to i64
  %7 = load i32, ptr %4, align 4, !tbaa !21
  %8 = sext i32 %7 to i64
  %9 = xor i64 %6, %8
  %10 = inttoptr i64 %9 to ptr
  ret ptr %10
}

; Function Attrs: inlinehint nounwind uwtable
define internal i32 @Hop_ObjPhaseCompl(ptr noundef %0) #1 {
  %2 = alloca ptr, align 8
  store ptr %0, ptr %2, align 8, !tbaa !3
  %3 = load ptr, ptr %2, align 8, !tbaa !3
  %4 = call i32 @Hop_IsComplement(ptr noundef %3)
  %5 = icmp ne i32 %4, 0
  br i1 %5, label %6, label %16

6:                                                ; preds = %1
  %7 = load ptr, ptr %2, align 8, !tbaa !3
  %8 = call ptr @Hop_Regular(ptr noundef %7)
  %9 = getelementptr inbounds nuw %struct.Hop_Obj_t_, ptr %8, i32 0, i32 4
  %10 = load i32, ptr %9, align 8
  %11 = lshr i32 %10, 3
  %12 = and i32 %11, 1
  %13 = icmp ne i32 %12, 0
  %14 = xor i1 %13, true
  %15 = zext i1 %14 to i32
  br label %22

16:                                               ; preds = %1
  %17 = load ptr, ptr %2, align 8, !tbaa !3
  %18 = getelementptr inbounds nuw %struct.Hop_Obj_t_, ptr %17, i32 0, i32 4
  %19 = load i32, ptr %18, align 8
  %20 = lshr i32 %19, 3
  %21 = and i32 %20, 1
  br label %22

22:                                               ; preds = %16, %6
  %23 = phi i32 [ %15, %6 ], [ %21, %16 ]
  ret i32 %23
}

; Function Attrs: inlinehint nounwind uwtable
define internal ptr @Hop_ManConst0(ptr noundef %0) #1 {
  %2 = alloca ptr, align 8
  store ptr %0, ptr %2, align 8, !tbaa !19
  %3 = load ptr, ptr %2, align 8, !tbaa !19
  %4 = getelementptr inbounds nuw %struct.Hop_Man_t_, ptr %3, i32 0, i32 3
  %5 = load ptr, ptr %4, align 8, !tbaa !37
  %6 = call ptr @Hop_Not(ptr noundef %5)
  ret ptr %6
}

; Function Attrs: inlinehint nounwind uwtable
define internal i32 @Hop_ObjIsConst1(ptr noundef %0) #1 {
  %2 = alloca ptr, align 8
  store ptr %0, ptr %2, align 8, !tbaa !3
  %3 = load ptr, ptr %2, align 8, !tbaa !3
  %4 = getelementptr inbounds nuw %struct.Hop_Obj_t_, ptr %3, i32 0, i32 4
  %5 = load i32, ptr %4, align 8
  %6 = and i32 %5, 7
  %7 = icmp eq i32 %6, 1
  %8 = zext i1 %7 to i32
  ret i32 %8
}

; Function Attrs: inlinehint nounwind uwtable
define internal ptr @Hop_Regular(ptr noundef %0) #1 {
  %2 = alloca ptr, align 8
  store ptr %0, ptr %2, align 8, !tbaa !3
  %3 = load ptr, ptr %2, align 8, !tbaa !3
  %4 = ptrtoint ptr %3 to i64
  %5 = and i64 %4, -2
  %6 = inttoptr i64 %5 to ptr
  ret ptr %6
}

; Function Attrs: inlinehint nounwind uwtable
define internal i32 @Hop_ManPiNum(ptr noundef %0) #1 {
  %2 = alloca ptr, align 8
  store ptr %0, ptr %2, align 8, !tbaa !19
  %3 = load ptr, ptr %2, align 8, !tbaa !19
  %4 = getelementptr inbounds nuw %struct.Hop_Man_t_, ptr %3, i32 0, i32 5
  %5 = getelementptr inbounds [6 x i32], ptr %4, i64 0, i64 2
  %6 = load i32, ptr %5, align 8, !tbaa !21
  ret i32 %6
}

; Function Attrs: nounwind uwtable
define ptr @Hop_Remap(ptr noundef %0, ptr noundef %1, i32 noundef %2, i32 noundef %3) #0 {
  %5 = alloca ptr, align 8
  %6 = alloca ptr, align 8
  %7 = alloca ptr, align 8
  %8 = alloca i32, align 4
  %9 = alloca i32, align 4
  %10 = alloca ptr, align 8
  %11 = alloca i32, align 4
  %12 = alloca i32, align 4
  %13 = alloca i32, align 4
  store ptr %0, ptr %6, align 8, !tbaa !19
  store ptr %1, ptr %7, align 8, !tbaa !3
  store i32 %2, ptr %8, align 4, !tbaa !21
  store i32 %3, ptr %9, align 4, !tbaa !21
  call void @llvm.lifetime.start.p0(i64 8, ptr %10) #7
  call void @llvm.lifetime.start.p0(i64 4, ptr %11) #7
  call void @llvm.lifetime.start.p0(i64 4, ptr %12) #7
  %14 = load i32, ptr %9, align 4, !tbaa !21
  %15 = load ptr, ptr %6, align 8, !tbaa !19
  %16 = call i32 @Hop_ManPiNum(ptr noundef %15)
  %17 = icmp sgt i32 %14, %16
  br i1 %17, label %18, label %23

18:                                               ; preds = %4
  %19 = load i32, ptr %9, align 4, !tbaa !21
  %20 = load ptr, ptr %6, align 8, !tbaa !19
  %21 = call i32 @Hop_ManPiNum(ptr noundef %20)
  %22 = call i32 (ptr, ...) @printf(ptr noundef @.str.2, i32 noundef %19, i32 noundef %21)
  store ptr null, ptr %5, align 8
  store i32 1, ptr %13, align 4
  br label %95

23:                                               ; preds = %4
  %24 = load ptr, ptr %7, align 8, !tbaa !3
  %25 = call ptr @Hop_Regular(ptr noundef %24)
  %26 = call i32 @Hop_ObjIsConst1(ptr noundef %25)
  %27 = icmp ne i32 %26, 0
  br i1 %27, label %28, label %30

28:                                               ; preds = %23
  %29 = load ptr, ptr %7, align 8, !tbaa !3
  store ptr %29, ptr %5, align 8
  store i32 1, ptr %13, align 4
  br label %95

30:                                               ; preds = %23
  %31 = load i32, ptr %8, align 4, !tbaa !21
  %32 = icmp eq i32 %31, 0
  br i1 %32, label %33, label %39

33:                                               ; preds = %30
  %34 = load ptr, ptr %6, align 8, !tbaa !19
  %35 = call ptr @Hop_ManConst0(ptr noundef %34)
  %36 = load ptr, ptr %7, align 8, !tbaa !3
  %37 = call i32 @Hop_ObjPhaseCompl(ptr noundef %36)
  %38 = call ptr @Hop_NotCond(ptr noundef %35, i32 noundef %37)
  store ptr %38, ptr %5, align 8
  store i32 1, ptr %13, align 4
  br label %95

39:                                               ; preds = %30
  store i32 0, ptr %12, align 4, !tbaa !21
  store i32 0, ptr %11, align 4, !tbaa !21
  br label %40

40:                                               ; preds = %79, %39
  %41 = load i32, ptr %11, align 4, !tbaa !21
  %42 = load ptr, ptr %6, align 8, !tbaa !19
  %43 = getelementptr inbounds nuw %struct.Hop_Man_t_, ptr %42, i32 0, i32 0
  %44 = load ptr, ptr %43, align 8, !tbaa !32
  %45 = call i32 @Vec_PtrSize(ptr noundef %44)
  %46 = icmp slt i32 %41, %45
  br i1 %46, label %47, label %53

47:                                               ; preds = %40
  %48 = load ptr, ptr %6, align 8, !tbaa !19
  %49 = getelementptr inbounds nuw %struct.Hop_Man_t_, ptr %48, i32 0, i32 0
  %50 = load ptr, ptr %49, align 8, !tbaa !32
  %51 = load i32, ptr %11, align 4, !tbaa !21
  %52 = call ptr @Vec_PtrEntry(ptr noundef %50, i32 noundef %51)
  store ptr %52, ptr %10, align 8, !tbaa !3
  br label %53

53:                                               ; preds = %47, %40
  %54 = phi i1 [ false, %40 ], [ true, %47 ]
  br i1 %54, label %55, label %82

55:                                               ; preds = %53
  %56 = load i32, ptr %11, align 4, !tbaa !21
  %57 = load i32, ptr %9, align 4, !tbaa !21
  %58 = icmp eq i32 %56, %57
  br i1 %58, label %59, label %60

59:                                               ; preds = %55
  br label %82

60:                                               ; preds = %55
  %61 = load i32, ptr %8, align 4, !tbaa !21
  %62 = load i32, ptr %11, align 4, !tbaa !21
  %63 = shl i32 1, %62
  %64 = and i32 %61, %63
  %65 = icmp ne i32 %64, 0
  br i1 %65, label %66, label %73

66:                                               ; preds = %60
  %67 = load ptr, ptr %6, align 8, !tbaa !19
  %68 = load i32, ptr %12, align 4, !tbaa !21
  %69 = add nsw i32 %68, 1
  store i32 %69, ptr %12, align 4, !tbaa !21
  %70 = call ptr @Hop_IthVar(ptr noundef %67, i32 noundef %68)
  %71 = load ptr, ptr %10, align 8, !tbaa !3
  %72 = getelementptr inbounds nuw %struct.Hop_Obj_t_, ptr %71, i32 0, i32 0
  store ptr %70, ptr %72, align 8, !tbaa !31
  br label %78

73:                                               ; preds = %60
  %74 = load ptr, ptr %6, align 8, !tbaa !19
  %75 = call ptr @Hop_ManConst0(ptr noundef %74)
  %76 = load ptr, ptr %10, align 8, !tbaa !3
  %77 = getelementptr inbounds nuw %struct.Hop_Obj_t_, ptr %76, i32 0, i32 0
  store ptr %75, ptr %77, align 8, !tbaa !31
  br label %78

78:                                               ; preds = %73, %66
  br label %79

79:                                               ; preds = %78
  %80 = load i32, ptr %11, align 4, !tbaa !21
  %81 = add nsw i32 %80, 1
  store i32 %81, ptr %11, align 4, !tbaa !21
  br label %40, !llvm.loop !45

82:                                               ; preds = %59, %53
  %83 = load ptr, ptr %6, align 8, !tbaa !19
  %84 = load ptr, ptr %7, align 8, !tbaa !3
  %85 = call ptr @Hop_Regular(ptr noundef %84)
  call void @Hop_Remap_rec(ptr noundef %83, ptr noundef %85)
  %86 = load ptr, ptr %7, align 8, !tbaa !3
  %87 = call ptr @Hop_Regular(ptr noundef %86)
  call void @Hop_ConeUnmark_rec(ptr noundef %87)
  %88 = load ptr, ptr %7, align 8, !tbaa !3
  %89 = call ptr @Hop_Regular(ptr noundef %88)
  %90 = getelementptr inbounds nuw %struct.Hop_Obj_t_, ptr %89, i32 0, i32 0
  %91 = load ptr, ptr %90, align 8, !tbaa !31
  %92 = load ptr, ptr %7, align 8, !tbaa !3
  %93 = call i32 @Hop_IsComplement(ptr noundef %92)
  %94 = call ptr @Hop_NotCond(ptr noundef %91, i32 noundef %93)
  store ptr %94, ptr %5, align 8
  store i32 1, ptr %13, align 4
  br label %95

95:                                               ; preds = %82, %33, %28, %18
  call void @llvm.lifetime.end.p0(i64 4, ptr %12) #7
  call void @llvm.lifetime.end.p0(i64 4, ptr %11) #7
  call void @llvm.lifetime.end.p0(i64 8, ptr %10) #7
  %96 = load ptr, ptr %5, align 8
  ret ptr %96
}