; Function Attrs: nounwind uwtable
define ptr @Hop_Remap(ptr noundef %0, ptr noundef %1, i32 noundef %2, i32 noundef %3) local_unnamed_addr #0 {
  %5 = getelementptr i8, ptr %0, i64 80
  %.val37 = load i32, ptr %5, align 8, !tbaa !16
  %6 = icmp sgt i32 %3, %.val37
  br i1 %6, label %7, label %9

7:                                                ; preds = %4
  %8 = tail call i32 (ptr, ...) @printf(ptr noundef nonnull dereferenceable(1) @.str.2, i32 noundef %3, i32 noundef %.val37)
  br label %66

9:                                                ; preds = %4
  %10 = ptrtoint ptr %1 to i64
  %11 = and i64 %10, -2
  %12 = inttoptr i64 %11 to ptr
  %13 = getelementptr i8, ptr %12, i64 32
  %.val35 = load i32, ptr %13, align 8
  %14 = and i32 %.val35, 7
  %.not = icmp eq i32 %14, 1
  br i1 %.not, label %66, label %15

15:                                               ; preds = %9
  %16 = icmp eq i32 %2, 0
  br i1 %16, label %22, label %.preheader

.preheader:                                       ; preds = %15
  %17 = load ptr, ptr %0, align 8, !tbaa !30
  %18 = getelementptr i8, ptr %17, i64 4
  %.val40 = load i32, ptr %18, align 4, !tbaa !11
  %19 = icmp sgt i32 %.val40, 0
  br i1 %19, label %.lr.ph, label %.critedge

.lr.ph:                                           ; preds = %.preheader
  %20 = getelementptr i8, ptr %0, i64 24
  %21 = zext i32 %3 to i64
  br label %39

22:                                               ; preds = %15
  %23 = getelementptr i8, ptr %0, i64 24
  %.val38 = load ptr, ptr %23, align 8, !tbaa !28
  %24 = ptrtoint ptr %.val38 to i64
  %25 = and i64 %10, 1
  %.not.i = icmp eq i64 %25, 0
  br i1 %.not.i, label %29, label %26

26:                                               ; preds = %22
  %27 = lshr i32 %.val35, 3
  %.lobit.i = and i32 %27, 1
  %28 = xor i32 %.lobit.i, 1
  br label %Hop_ObjPhaseCompl.exit

29:                                               ; preds = %22
  %30 = getelementptr inbounds nuw i8, ptr %1, i64 32
  %31 = load i32, ptr %30, align 8
  %32 = lshr i32 %31, 3
  %33 = and i32 %32, 1
  br label %Hop_ObjPhaseCompl.exit

Hop_ObjPhaseCompl.exit:                           ; preds = %26, %29
  %34 = phi i32 [ %28, %26 ], [ %33, %29 ]
  %35 = zext nneg i32 %34 to i64
  %36 = xor i64 %24, %35
  %37 = xor i64 %36, 1
  %38 = inttoptr i64 %37 to ptr
  br label %66

39:                                               ; preds = %.lr.ph, %56
  %indvars.iv = phi i64 [ 0, %.lr.ph ], [ %indvars.iv.next, %56 ]
  %40 = phi ptr [ %17, %.lr.ph ], [ %57, %56 ]
  %.042 = phi i32 [ 0, %.lr.ph ], [ %.1, %56 ]
  %41 = getelementptr i8, ptr %40, i64 8
  %.val34 = load ptr, ptr %41, align 8, !tbaa !14
  %42 = getelementptr inbounds nuw ptr, ptr %.val34, i64 %indvars.iv
  %43 = load ptr, ptr %42, align 8, !tbaa !15
  %44 = icmp eq i64 %indvars.iv, %21
  br i1 %44, label %.critedge, label %45

45:                                               ; preds = %39
  %46 = trunc nuw nsw i64 %indvars.iv to i32
  %47 = shl nuw i32 1, %46
  %48 = and i32 %47, %2
  %.not33 = icmp eq i32 %48, 0
  br i1 %.not33, label %52, label %49

49:                                               ; preds = %45
  %50 = add nsw i32 %.042, 1
  %51 = tail call ptr @Hop_IthVar(ptr noundef nonnull %0, i32 noundef %.042) #11
  br label %56

52:                                               ; preds = %45
  %.val39 = load ptr, ptr %20, align 8, !tbaa !28
  %53 = ptrtoint ptr %.val39 to i64
  %54 = xor i64 %53, 1
  %55 = inttoptr i64 %54 to ptr
  br label %56

56:                                               ; preds = %49, %52
  %storemerge = phi ptr [ %55, %52 ], [ %51, %49 ]
  %.1 = phi i32 [ %.042, %52 ], [ %50, %49 ]
  store ptr %storemerge, ptr %43, align 8, !tbaa !29
  %indvars.iv.next = add nuw nsw i64 %indvars.iv, 1
  %57 = load ptr, ptr %0, align 8, !tbaa !30
  %58 = getelementptr i8, ptr %57, i64 4
  %.val = load i32, ptr %58, align 4, !tbaa !11
  %59 = sext i32 %.val to i64
  %60 = icmp slt i64 %indvars.iv.next, %59
  br i1 %60, label %39, label %.critedge, !llvm.loop !42

.critedge:                                        ; preds = %39, %56, %.preheader
  tail call void @Hop_Remap_rec(ptr noundef nonnull %0, ptr noundef %12)
  tail call void @Hop_ConeUnmark_rec(ptr noundef %12)
  %61 = load ptr, ptr %12, align 8, !tbaa !29
  %62 = and i64 %10, 1
  %63 = ptrtoint ptr %61 to i64
  %64 = xor i64 %62, %63
  %65 = inttoptr i64 %64 to ptr
  br label %66

66:                                               ; preds = %9, %.critedge, %Hop_ObjPhaseCompl.exit, %7
  %.029 = phi ptr [ null, %7 ], [ %38, %Hop_ObjPhaseCompl.exit ], [ %65, %.critedge ], [ %1, %9 ]
  ret ptr %.029
}